Certificate:
    Data:
        Version: 3 (0x2)
        Serial Number: 15110787105494093263 (0xd1b44ccfe3874dcf)
    Signature Algorithm: sha1WithRSAEncryption
        Issuer: C=VN, ST=Hanoi, O=FAMILUG, OU=IT, CN=familug.org/emailAddress=hvn@familug.org
        Validity
            Not Before: Apr 15 15:05:48 2013 GMT
            Not After : Apr 14 15:05:48 2016 GMT
        Subject: C=VN, ST=Hanoi, O=FAMILUG, OU=IT, CN=familug.org/emailAddress=hvn@familug.org
        Subject Public Key Info:
            Public Key Algorithm: rsaEncryption
                Public-Key: (1024 bit)
                Modulus:
                    00:db:29:15:16:e6:31:fc:6e:60:3b:ae:8d:99:44:
                    f7:7f:72:59:8f:05:a4:c8:3b:19:c2:f6:88:13:ef:
                    65:19:38:a4:a4:31:00:a1:64:6a:19:b8:5b:5b:6c:
                    5b:b7:4a:52:57:90:62:76:6b:5e:9e:21:24:f3:2b:
                    34:ea:4e:8a:fd:94:d0:1b:56:8c:f1:9c:88:57:ec:
                    b8:6c:21:64:be:92:78:53:74:fc:be:bb:f0:fd:ab:
                    1d:6e:62:8f:dc:a7:13:90:ab:06:40:b4:09:5a:5c:
                    3e:5b:bd:d3:99:40:35:42:f4:96:12:31:fe:59:55:
                    86:82:ab:db:72:af:b0:03:0d
                Exponent: 65537 (0x10001)
        X509v3 extensions:
            X509v3 Subject Key Identifier: 
                56:9D:0E:AB:D1:0D:87:7E:DD:8C:16:4E:D0:BF:B5:DF:24:CC:90:EE
            X509v3 Authority Key Identifier: 
                keyid:56:9D:0E:AB:D1:0D:87:7E:DD:8C:16:4E:D0:BF:B5:DF:24:CC:90:EE

            X509v3 Basic Constraints: 
                CA:TRUE
    Signature Algorithm: sha1WithRSAEncryption
         90:33:41:9b:19:45:f0:6b:2d:2b:d5:9f:f0:16:2a:9a:e0:33:
         51:86:f0:48:53:18:ee:71:dc:37:6c:2f:ad:2a:d1:d0:3f:8e:
         fc:1d:88:8a:b5:ec:91:01:32:a8:17:9f:93:61:28:45:a8:0d:
         c9:aa:a8:3c:76:5e:c5:df:b3:c7:83:63:8d:0d:0c:8f:90:7f:
         43:2a:8a:6e:83:bd:16:0b:57:6e:04:06:23:6d:0e:aa:ae:80:
         7f:33:e7:74:99:a7:23:eb:c5:51:9d:eb:5e:e7:7e:c3:96:ea:
         e2:da:80:93:64:9c:b9:b7:0b:a8:19:27:47:69:2c:ea:4f:90:
         3d:c4
-----BEGIN CERTIFICATE-----
MIICsjCCAhugAwIBAgIJANG0TM/jh03PMA0GCSqGSIb3DQEBBQUAMHIxCzAJBgNV
BAYTAlZOMQ4wDAYDVQQIDAVIYW5vaTEQMA4GA1UECgwHRkFNSUxVRzELMAkGA1UE
CwwCSVQxFDASBgNVBAMMC2ZhbWlsdWcub3JnMR4wHAYJKoZIhvcNAQkBFg9odm5A
ZmFtaWx1Zy5vcmcwHhcNMTMwNDE1MTUwNTQ4WhcNMTYwNDE0MTUwNTQ4WjByMQsw
CQYDVQQGEwJWTjEOMAwGA1UECAwFSGFub2kxEDAOBgNVBAoMB0ZBTUlMVUcxCzAJ
BgNVBAsMAklUMRQwEgYDVQQDDAtmYW1pbHVnLm9yZzEeMBwGCSqGSIb3DQEJARYP
aHZuQGZhbWlsdWcub3JnMIGfMA0GCSqGSIb3DQEBAQUAA4GNADCBiQKBgQDbKRUW
5jH8bmA7ro2ZRPd/clmPBaTIOxnC9ogT72UZOKSkMQChZGoZuFtbbFu3SlJXkGJ2
a16eISTzKzTqTor9lNAbVozxnIhX7LhsIWS+knhTdPy+u/D9qx1uYo/cpxOQqwZA
tAlaXD5bvdOZQDVC9JYSMf5ZVYaCq9tyr7ADDQIDAQABo1AwTjAdBgNVHQ4EFgQU
Vp0Oq9ENh37djBZO0L+13yTMkO4wHwYDVR0jBBgwFoAUVp0Oq9ENh37djBZO0L+1
3yTMkO4wDAYDVR0TBAUwAwEB/zANBgkqhkiG9w0BAQUFAAOBgQCQM0GbGUXway0r
1Z/wFiqa4DNRhvBIUxjucdw3bC+tKtHQP478HYiKteyRATKoF5+TYShFqA3Jqqg8
dl7F37PHg2ONDQyPkH9DKopug70WC1duBAYjbQ6qroB/M+d0macj68VRnete537D
luri2oCTZJy5twuoGSdHaSzqT5A9xA==
-----END CERTIFICATE-----
