Certificate:
    Data:
        Version: 3 (0x2)
        Serial Number: 15110787105494093264 (0xd1b44ccfe3874dd0)
    Signature Algorithm: sha1WithRSAEncryption
        Issuer: C=VN, ST=Hanoi, O=FAMILUG, OU=IT, CN=familug.org/emailAddress=hvn@familug.org
        Validity
            Not Before: Apr 15 15:07:03 2013 GMT
            Not After : Apr 15 15:07:03 2014 GMT
        Subject: C=VN, ST=Hanoi, L=Hanoi, O=FAMILUG, OU=IT, CN=familug.org/emailAddress=hvn@familug.org
        Subject Public Key Info:
            Public Key Algorithm: rsaEncryption
                Public-Key: (1024 bit)
                Modulus:
                    00:d5:d2:ec:42:f9:1d:a8:c8:d1:9b:e9:d2:e2:12:
                    cd:74:91:e5:37:d2:b7:b1:c4:3e:ee:44:e2:f8:be:
                    af:c8:c3:0e:45:59:ba:3e:cf:1c:6d:bd:05:4f:00:
                    70:c0:c9:4c:76:df:74:00:6f:51:6b:1c:8f:23:a7:
                    b9:2b:f7:f8:e3:ca:d0:ac:ae:a3:ca:de:bb:2c:0d:
                    14:0e:80:67:61:3a:6e:7a:03:ae:04:dc:10:34:a2:
                    45:18:2c:26:4f:cd:e5:db:9f:8a:27:9f:fc:d5:ac:
                    4b:c1:6b:0d:fb:d3:69:11:af:89:b8:08:c2:89:5f:
                    3c:1f:25:fd:29:4e:ce:9d:2b
                Exponent: 65537 (0x10001)
        X509v3 extensions:
            X509v3 Basic Constraints: 
                CA:FALSE
            Netscape Comment: 
                OpenSSL Generated Certificate
            X509v3 Subject Key Identifier: 
                DE:DC:F3:D3:70:75:2D:A6:61:B1:53:56:31:22:AC:76:DF:35:F3:C2
            X509v3 Authority Key Identifier: 
                keyid:56:9D:0E:AB:D1:0D:87:7E:DD:8C:16:4E:D0:BF:B5:DF:24:CC:90:EE

    Signature Algorithm: sha1WithRSAEncryption
         41:6a:5c:85:89:1e:0b:ec:13:2b:4b:88:46:07:4c:4f:98:1f:
         88:3a:c9:9d:6a:06:b7:5d:86:b5:38:81:d6:f5:29:3e:b4:15:
         69:20:7d:1d:0f:b4:f7:a2:fc:c9:76:e3:8c:bf:7d:db:eb:22:
         98:39:f2:78:b4:77:75:9c:bf:a6:52:44:c2:2f:37:da:31:fc:
         f6:2e:23:ea:5f:37:5c:12:ee:74:e6:9c:b6:fd:8b:3e:9d:d4:
         1e:66:0a:8c:17:cb:dc:74:c7:f2:1d:08:bc:9b:98:92:e4:d4:
         87:9d:64:cd:c8:36:f5:a4:9d:bc:a0:48:e7:ed:11:7b:66:04:
         dc:c5
-----BEGIN CERTIFICATE-----
MIIC7jCCAlegAwIBAgIJANG0TM/jh03QMA0GCSqGSIb3DQEBBQUAMHIxCzAJBgNV
BAYTAlZOMQ4wDAYDVQQIDAVIYW5vaTEQMA4GA1UECgwHRkFNSUxVRzELMAkGA1UE
CwwCSVQxFDASBgNVBAMMC2ZhbWlsdWcub3JnMR4wHAYJKoZIhvcNAQkBFg9odm5A
ZmFtaWx1Zy5vcmcwHhcNMTMwNDE1MTUwNzAzWhcNMTQwNDE1MTUwNzAzWjCBgjEL
MAkGA1UEBhMCVk4xDjAMBgNVBAgMBUhhbm9pMQ4wDAYDVQQHDAVIYW5vaTEQMA4G
A1UECgwHRkFNSUxVRzELMAkGA1UECwwCSVQxFDASBgNVBAMMC2ZhbWlsdWcub3Jn
MR4wHAYJKoZIhvcNAQkBFg9odm5AZmFtaWx1Zy5vcmcwgZ8wDQYJKoZIhvcNAQEB
BQADgY0AMIGJAoGBANXS7EL5HajI0Zvp0uISzXSR5TfSt7HEPu5E4vi+r8jDDkVZ
uj7PHG29BU8AcMDJTHbfdABvUWscjyOnuSv3+OPK0Kyuo8reuywNFA6AZ2E6bnoD
rgTcEDSiRRgsJk/N5dufiief/NWsS8FrDfvTaRGvibgIwolfPB8l/SlOzp0rAgMB
AAGjezB5MAkGA1UdEwQCMAAwLAYJYIZIAYb4QgENBB8WHU9wZW5TU0wgR2VuZXJh
dGVkIENlcnRpZmljYXRlMB0GA1UdDgQWBBTe3PPTcHUtpmGxU1YxIqx23zXzwjAf
BgNVHSMEGDAWgBRWnQ6r0Q2Hft2MFk7Qv7XfJMyQ7jANBgkqhkiG9w0BAQUFAAOB
gQBBalyFiR4L7BMrS4hGB0xPmB+IOsmdaga3XYa1OIHW9Sk+tBVpIH0dD7T3ovzJ
duOMv33b6yKYOfJ4tHd1nL+mUkTCLzfaMfz2LiPqXzdcEu505py2/Ys+ndQeZgqM
F8vcdMfyHQi8m5iS5NSHnWTNyDb1pJ28oEjn7RF7ZgTcxQ==
-----END CERTIFICATE-----
